target datalayout = "e-m:e-p270:32:32-p271:32:32-p272:64:64-i64:64-i128:128-f80:128-n8:16:32:64-S128"
target triple = "x86_64-pc-linux-gnu"

%"struct.faiss::IndexNSG" = type <{ %"struct.faiss::Index.base", [4 x i8], %"struct.faiss::NSG", i8, [7 x i8], ptr, i8, [3 x i8], i32, i8, [3 x i8], i32, i32, i32, i32, [4 x i8] }>
%"struct.faiss::Index.base" = type <{ ptr, i32, [4 x i8], i64, i8, i8, [2 x i8], i32, float }>
%"struct.faiss::NSG" = type { i32, i32, i32, i32, i32, i32, %"class.std::shared_ptr", i8, %"struct.faiss::RandomGenerator" }
%"class.std::shared_ptr" = type { %"class.std::__shared_ptr" }
%"class.std::__shared_ptr" = type { ptr, %"class.std::__shared_count" }
%"class.std::__shared_count" = type { ptr }
%"struct.faiss::RandomGenerator" = type { %"class.std::mersenne_twister_engine" }
%"class.std::mersenne_twister_engine" = type { [624 x i64], i64 }
%"struct.faiss::Index" = type <{ ptr, i32, [4 x i8], i64, i8, i8, [2 x i8], i32, float, [4 x i8] }>

@_ZTVN5faiss5IndexE = external unnamed_addr constant { [24 x ptr] }, align 8

; Function Attrs: mustprogress nounwind uwtable
define linkonce_odr void @_ZN5faiss5IndexC2ElNS_10MetricTypeE(ptr noundef nonnull align 8 dereferenceable(36) %0, i64 noundef %1, i32 noundef %2) unnamed_addr #0 comdat align 2 {
  %4 = alloca ptr, align 8
  %5 = alloca i64, align 8
  %6 = alloca i32, align 4
  store ptr %0, ptr %4, align 8
  store i64 %1, ptr %5, align 8
  store i32 %2, ptr %6, align 4
  %7 = load ptr, ptr %4, align 8
  store ptr getelementptr inbounds ({ [24 x ptr] }, ptr @_ZTVN5faiss5IndexE, i32 0, i32 0, i32 2), ptr %7, align 8
  %8 = getelementptr inbounds %"struct.faiss::Index", ptr %7, i32 0, i32 1
  %9 = load i64, ptr %5, align 8
  %10 = trunc i64 %9 to i32
  store i32 %10, ptr %8, align 8
  %11 = getelementptr inbounds %"struct.faiss::Index", ptr %7, i32 0, i32 3
  store i64 0, ptr %11, align 8
  %12 = getelementptr inbounds %"struct.faiss::Index", ptr %7, i32 0, i32 4
  store i8 0, ptr %12, align 8
  %13 = getelementptr inbounds %"struct.faiss::Index", ptr %7, i32 0, i32 5
  store i8 1, ptr %13, align 1
  %14 = getelementptr inbounds %"struct.faiss::Index", ptr %7, i32 0, i32 7
  %15 = load i32, ptr %6, align 4
  store i32 %15, ptr %14, align 4
  %16 = getelementptr inbounds %"struct.faiss::Index", ptr %7, i32 0, i32 8
  store float 0.000000e+00, ptr %16, align 8
  ret void
}

; Function Attrs: mustprogress uwtable
define void @_ZN5faiss8IndexNSGC2EiiNS_10MetricTypeE(ptr noundef nonnull align 8 dereferenceable(5132) %0, i32 noundef %1, i32 noundef %2, i32 noundef %3) unnamed_addr #1 align 2 personality ptr @__gxx_personality_v0 {
  %5 = alloca ptr, align 8
  %6 = alloca i32, align 4
  %7 = alloca i32, align 4
  %8 = alloca i32, align 4
  %9 = alloca ptr, align 8
  %10 = alloca i32, align 4
  store ptr %0, ptr %5, align 8
  store i32 %1, ptr %6, align 4
  store i32 %2, ptr %7, align 4
  store i32 %3, ptr %8, align 4
  %11 = load ptr, ptr %5, align 8
  %12 = load i32, ptr %6, align 4
  %13 = sext i32 %12 to i64
  %14 = load i32, ptr %8, align 4
  call void @_ZN5faiss5IndexC2ElNS_10MetricTypeE(ptr noundef nonnull align 8 dereferenceable(36) %11, i64 noundef %13, i32 noundef %14)
  store ptr getelementptr inbounds ({ [24 x ptr] }, ptr @_ZTVN5faiss8IndexNSGE, i32 0, i32 0, i32 2), ptr %11, align 8
  %15 = getelementptr inbounds %"struct.faiss::IndexNSG", ptr %11, i32 0, i32 2
  %16 = load i32, ptr %7, align 4
  invoke void @_ZN5faiss3NSGC1Ei(ptr noundef nonnull align 8 dereferenceable(5048) %15, i32 noundef %16)
          to label %17 unwind label %30

17:                                               ; preds = %4
  %18 = getelementptr inbounds %"struct.faiss::IndexNSG", ptr %11, i32 0, i32 3
  store i8 0, ptr %18, align 8
  %19 = getelementptr inbounds %"struct.faiss::IndexNSG", ptr %11, i32 0, i32 5
  store ptr null, ptr %19, align 8
  %20 = getelementptr inbounds %"struct.faiss::IndexNSG", ptr %11, i32 0, i32 6
  store i8 0, ptr %20, align 8
  %21 = getelementptr inbounds %"struct.faiss::IndexNSG", ptr %11, i32 0, i32 8
  store i32 64, ptr %21, align 4
  %22 = getelementptr inbounds %"struct.faiss::IndexNSG", ptr %11, i32 0, i32 9
  store i8 0, ptr %22, align 8
  %23 = getelementptr inbounds %"struct.faiss::IndexNSG", ptr %11, i32 0, i32 11
  store i32 10, ptr %23, align 4
  %24 = getelementptr inbounds %"struct.faiss::IndexNSG", ptr %11, i32 0, i32 12
  store i32 100, ptr %24, align 8
  %25 = getelementptr inbounds %"struct.faiss::IndexNSG", ptr %11, i32 0, i32 14
  store i32 10, ptr %25, align 8
  %26 = getelementptr inbounds %"struct.faiss::IndexNSG", ptr %11, i32 0, i32 8
  %27 = load i32, ptr %26, align 4
  %28 = add nsw i32 %27, 50
  %29 = getelementptr inbounds %"struct.faiss::IndexNSG", ptr %11, i32 0, i32 13
  store i32 %28, ptr %29, align 4
  ret void

30:                                               ; preds = %4
  %31 = landingpad { ptr, i32 }
          cleanup
  %32 = extractvalue { ptr, i32 } %31, 0
  store ptr %32, ptr %9, align 8
  %33 = extractvalue { ptr, i32 } %31, 1
  store i32 %33, ptr %10, align 4
  call void @_ZN5faiss5IndexD2Ev(ptr noundef nonnull align 8 dereferenceable(36) %11) #7
  br label %34

34:                                               ; preds = %30
  %35 = load ptr, ptr %9, align 8
  %36 = load i32, ptr %10, align 4
  %37 = insertvalue { ptr, i32 } poison, ptr %35, 0
  %38 = insertvalue { ptr, i32 } %37, i32 %36, 1
  resume { ptr, i32 } %38
}